; Function Attrs: mustprogress uwtable
define dso_local void @_ZNK18ExpressionVariable6OutputERSo(ptr noundef nonnull align 8 dereferenceable(40) %0, ptr noundef nonnull align 8 dereferenceable(8) %1) unnamed_addr #3 align 2 {
  tail call void @_ZNK10Expression11output_castERSo(ptr noundef nonnull align 8 dereferenceable(24) %0, ptr noundef nonnull align 8 dereferenceable(8) %1)
  %3 = getelementptr inbounds i8, ptr %0, i64 24
  %4 = load ptr, ptr %3, align 8
  %5 = getelementptr inbounds i8, ptr %4, i64 64
  %6 = load ptr, ptr %5, align 8
  %7 = tail call noundef i32 @_ZNK4Type18get_indirect_levelEv(ptr noundef nonnull align 8 dereferenceable(136) %6)
  %8 = getelementptr inbounds i8, ptr %0, i64 32
  %9 = load ptr, ptr %8, align 8
  %10 = tail call noundef i32 @_ZNK4Type18get_indirect_levelEv(ptr noundef nonnull align 8 dereferenceable(136) %9)
  %11 = sub nsw i32 %7, %10
  %12 = icmp sgt i32 %11, 0
  br i1 %12, label %13, label %18

13:                                               ; preds = %2
  %14 = tail call noundef nonnull align 8 dereferenceable(8) ptr @_ZStlsISt11char_traitsIcEERSt13basic_ostreamIcT_ES5_PKc(ptr noundef nonnull align 8 dereferenceable(8) %1, ptr noundef nonnull @.str)
  br label %15

15:                                               ; preds = %13, %15
  %.013 = phi i32 [ 0, %13 ], [ %17, %15 ]
  %16 = tail call noundef nonnull align 8 dereferenceable(8) ptr @_ZStlsISt11char_traitsIcEERSt13basic_ostreamIcT_ES5_PKc(ptr noundef nonnull align 8 dereferenceable(8) %1, ptr noundef nonnull @.str.1)
  %17 = add nuw nsw i32 %.013, 1
  %exitcond.not = icmp eq i32 %17, %11
  br i1 %exitcond.not, label %.loopexit, label %15, !llvm.loop !10

18:                                               ; preds = %2
  %19 = icmp slt i32 %11, 0
  br i1 %19, label %20, label %.loopexit

20:                                               ; preds = %18
  %21 = tail call noundef nonnull align 8 dereferenceable(8) ptr @_ZStlsISt11char_traitsIcEERSt13basic_ostreamIcT_ES5_PKc(ptr noundef nonnull align 8 dereferenceable(8) %1, ptr noundef nonnull @.str.2)
  br label %.loopexit

.loopexit:                                        ; preds = %15, %18, %20
  %22 = load ptr, ptr %3, align 8
  %23 = load ptr, ptr %22, align 8
  %24 = getelementptr inbounds i8, ptr %23, i64 88
  %25 = load ptr, ptr %24, align 8
  tail call void %25(ptr noundef nonnull align 8 dereferenceable(200) %22, ptr noundef nonnull align 8 dereferenceable(8) %1)
  br i1 %12, label %26, label %28

26:                                               ; preds = %.loopexit
  %27 = tail call noundef nonnull align 8 dereferenceable(8) ptr @_ZStlsISt11char_traitsIcEERSt13basic_ostreamIcT_ES5_PKc(ptr noundef nonnull align 8 dereferenceable(8) %1, ptr noundef nonnull @.str.3)
  br label %28

28:                                               ; preds = %26, %.loopexit
  ret void
}